; Function Attrs: mustprogress uwtable
define noundef zeroext i1 @_ZN8QuantLib3IMM9isIMMdateERKNS_4DateEb(ptr noundef nonnull align 8 dereferenceable(8) %date, i1 noundef zeroext %mainCycle) local_unnamed_addr #3 align 2 {
entry:
  %0 = load i64, ptr %date, align 8, !tbaa !3
  %rem.i = srem i64 %0, 7
  %cmp.not4 = icmp eq i64 %rem.i, 4
  br i1 %cmp.not4, label %if.end, label %return

if.end:                                           ; preds = %entry
  %call.i.i = tail call noundef i32 @_ZNK8QuantLib4Date4yearEv(ptr noundef nonnull align 8 dereferenceable(8) %date)
  %call2.i.i = tail call noundef i64 @_ZN8QuantLib4Date10yearOffsetEi(i32 noundef %call.i.i)
  %sub.i.i = sub nsw i64 %0, %call2.i.i
  %conv.i.i = trunc i64 %sub.i.i to i32
  %call2.i = tail call noundef i32 @_ZNK8QuantLib4Date5monthEv(ptr noundef nonnull align 8 dereferenceable(8) %date)
  %call3.i = tail call noundef i32 @_ZNK8QuantLib4Date4yearEv(ptr noundef nonnull align 8 dereferenceable(8) %date)
  %call4.i = tail call noundef zeroext i1 @_ZN8QuantLib4Date6isLeapEi(i32 noundef %call3.i)
  %call5.i = tail call noundef i32 @_ZN8QuantLib4Date11monthOffsetENS_5MonthEb(i32 noundef %call2.i, i1 noundef zeroext %call4.i)
  %sub.i = add i32 %conv.i.i, -15
  %1 = sub i32 %sub.i, %call5.i
  %or.cond = icmp ult i32 %1, 7
  %brmerge.not = and i1 %mainCycle, %or.cond
  br i1 %brmerge.not, label %if.end7, label %return

if.end7:                                          ; preds = %if.end
  %call8 = tail call noundef i32 @_ZNK8QuantLib4Date5monthEv(ptr noundef nonnull align 8 dereferenceable(8) %date)
  %2 = icmp ult i32 %call8, 13
  br i1 %2, label %switch.lookup, label %return

switch.lookup:                                    ; preds = %if.end7
  %switch.cast = trunc nuw i32 %call8 to i13
  %switch.downshift = lshr i13 -3512, %switch.cast
  %switch.masked = trunc i13 %switch.downshift to i1
  br label %return

return:                                           ; preds = %if.end7, %switch.lookup, %if.end, %entry
  %retval.0 = phi i1 [ false, %entry ], [ %or.cond, %if.end ], [ %switch.masked, %switch.lookup ], [ false, %if.end7 ]
  ret i1 %retval.0
}